target datalayout = "e-m:e-p270:32:32-p271:32:32-p272:64:64-i64:64-i128:128-f80:128-n8:16:32:64-S128"
target triple = "x86_64-pc-linux-gnu"

; Function Attrs: mustprogress nounwind uwtable
define linkonce_odr noundef float @_ZSt3absf(float noundef %0) #2 comdat {
  %2 = alloca float, align 4
  store float %0, ptr %2, align 4
  %3 = load float, ptr %2, align 4
  %4 = call float @llvm.fabs.f32(float %3)
  ret float %4
}

; Function Attrs: mustprogress nounwind uwtable
define linkonce_odr hidden noundef float @_ZNSt14numeric_limitsIfE3maxEv() #2 comdat align 2 {
  ret float 0x47EFFFFFE0000000
}

; Function Attrs: mustprogress uwtable
define internal noundef float @_ZN2cvL6normL1IhfEET0_PKT_S4_i(ptr noundef %0, ptr noundef %1, i32 noundef %2) #0 {
  %4 = alloca ptr, align 8
  %5 = alloca ptr, align 8
  %6 = alloca i32, align 4
  %7 = alloca float, align 4
  %8 = alloca i32, align 4
  %9 = alloca float, align 4
  store ptr %0, ptr %4, align 8
  store ptr %1, ptr %5, align 8
  store i32 %2, ptr %6, align 4
  store float 0.000000e+00, ptr %7, align 4
  store i32 0, ptr %8, align 4
  br label %10

10:                                               ; preds = %33, %3
  %11 = load i32, ptr %8, align 4
  %12 = load i32, ptr %6, align 4
  %13 = icmp slt i32 %11, %12
  br i1 %13, label %14, label %36

14:                                               ; preds = %10
  %15 = load ptr, ptr %4, align 8
  %16 = load i32, ptr %8, align 4
  %17 = sext i32 %16 to i64
  %18 = getelementptr inbounds i8, ptr %15, i64 %17
  %19 = load i8, ptr %18, align 1
  %20 = zext i8 %19 to i32
  %21 = load ptr, ptr %5, align 8
  %22 = load i32, ptr %8, align 4
  %23 = sext i32 %22 to i64
  %24 = getelementptr inbounds i8, ptr %21, i64 %23
  %25 = load i8, ptr %24, align 1
  %26 = zext i8 %25 to i32
  %27 = sub nsw i32 %20, %26
  %28 = sitofp i32 %27 to float
  store float %28, ptr %9, align 4
  %29 = load float, ptr %9, align 4
  %30 = call noundef float @_ZSt3absf(float noundef %29)
  %31 = load float, ptr %7, align 4
  %32 = fadd float %31, %30
  store float %32, ptr %7, align 4
  br label %33

33:                                               ; preds = %14
  %34 = load i32, ptr %8, align 4
  %35 = add nsw i32 %34, 1
  store i32 %35, ptr %8, align 4
  br label %10, !llvm.loop !21

36:                                               ; preds = %10
  %37 = load float, ptr %7, align 4
  ret float %37
}

; Function Attrs: mustprogress uwtable
define linkonce_odr hidden void @_ZN2cv12batchDistL1_IhfEEvPKT_S3_miiPT0_PKh(ptr noundef %0, ptr noundef %1, i64 noundef %2, i32 noundef %3, i32 noundef %4, ptr noundef %5, ptr noundef %6) #0 comdat {
  %8 = alloca ptr, align 8
  %9 = alloca ptr, align 8
  %10 = alloca i64, align 8
  %11 = alloca i32, align 4
  %12 = alloca i32, align 4
  %13 = alloca ptr, align 8
  %14 = alloca ptr, align 8
  %15 = alloca i32, align 4
  %16 = alloca float, align 4
  %17 = alloca i32, align 4
  store ptr %0, ptr %8, align 8
  store ptr %1, ptr %9, align 8
  store i64 %2, ptr %10, align 8
  store i32 %3, ptr %11, align 4
  store i32 %4, ptr %12, align 4
  store ptr %5, ptr %13, align 8
  store ptr %6, ptr %14, align 8
  %18 = load i64, ptr %10, align 8
  %19 = udiv i64 %18, 1
  store i64 %19, ptr %10, align 8
  %20 = load ptr, ptr %14, align 8
  %21 = icmp ne ptr %20, null
  br i1 %21, label %45, label %22

22:                                               ; preds = %7
  store i32 0, ptr %15, align 4
  br label %23

23:                                               ; preds = %41, %22
  %24 = load i32, ptr %15, align 4
  %25 = load i32, ptr %11, align 4
  %26 = icmp slt i32 %24, %25
  br i1 %26, label %27, label %44

27:                                               ; preds = %23
  %28 = load ptr, ptr %8, align 8
  %29 = load ptr, ptr %9, align 8
  %30 = load i64, ptr %10, align 8
  %31 = load i32, ptr %15, align 4
  %32 = sext i32 %31 to i64
  %33 = mul i64 %30, %32
  %34 = getelementptr inbounds i8, ptr %29, i64 %33
  %35 = load i32, ptr %12, align 4
  %36 = call noundef float @_ZN2cvL6normL1IhfEET0_PKT_S4_i(ptr noundef %28, ptr noundef %34, i32 noundef %35)
  %37 = load ptr, ptr %13, align 8
  %38 = load i32, ptr %15, align 4
  %39 = sext i32 %38 to i64
  %40 = getelementptr inbounds float, ptr %37, i64 %39
  store float %36, ptr %40, align 4
  br label %41

41:                                               ; preds = %27
  %42 = load i32, ptr %15, align 4
  %43 = add nsw i32 %42, 1
  store i32 %43, ptr %15, align 4
  br label %23, !llvm.loop !19

44:                                               ; preds = %23
  br label %80

45:                                               ; preds = %7
  %46 = call noundef float @_ZNSt14numeric_limitsIfE3maxEv() #9
  store float %46, ptr %16, align 4
  store i32 0, ptr %17, align 4
  br label %47

47:                                               ; preds = %76, %45
  %48 = load i32, ptr %17, align 4
  %49 = load i32, ptr %11, align 4
  %50 = icmp slt i32 %48, %49
  br i1 %50, label %51, label %79

51:                                               ; preds = %47
  %52 = load ptr, ptr %14, align 8
  %53 = load i32, ptr %17, align 4
  %54 = sext i32 %53 to i64
  %55 = getelementptr inbounds i8, ptr %52, i64 %54
  %56 = load i8, ptr %55, align 1
  %57 = icmp ne i8 %56, 0
  br i1 %57, label %58, label %68

58:                                               ; preds = %51
  %59 = load ptr, ptr %8, align 8
  %60 = load ptr, ptr %9, align 8
  %61 = load i64, ptr %10, align 8
  %62 = load i32, ptr %17, align 4
  %63 = sext i32 %62 to i64
  %64 = mul i64 %61, %63
  %65 = getelementptr inbounds i8, ptr %60, i64 %64
  %66 = load i32, ptr %12, align 4
  %67 = call noundef float @_ZN2cvL6normL1IhfEET0_PKT_S4_i(ptr noundef %59, ptr noundef %65, i32 noundef %66)
  br label %70

68:                                               ; preds = %51
  %69 = load float, ptr %16, align 4
  br label %70

70:                                               ; preds = %68, %58
  %71 = phi float [ %67, %58 ], [ %69, %68 ]
  %72 = load ptr, ptr %13, align 8
  %73 = load i32, ptr %17, align 4
  %74 = sext i32 %73 to i64
  %75 = getelementptr inbounds float, ptr %72, i64 %74
  store float %71, ptr %75, align 4
  br label %76

76:                                               ; preds = %70
  %77 = load i32, ptr %17, align 4
  %78 = add nsw i32 %77, 1
  store i32 %78, ptr %17, align 4
  br label %47, !llvm.loop !20

79:                                               ; preds = %47
  br label %80

80:                                               ; preds = %79, %44
  ret void
}

; Function Attrs: mustprogress uwtable
define internal void @_ZN2cvL17batchDistL1_8u32fEPKhS1_miiPfS1_(ptr noundef %0, ptr noundef %1, i64 noundef %2, i32 noundef %3, i32 noundef %4, ptr noundef %5, ptr noundef %6) #0 {
  %8 = alloca ptr, align 8
  %9 = alloca ptr, align 8
  %10 = alloca i64, align 8
  %11 = alloca i32, align 4
  %12 = alloca i32, align 4
  %13 = alloca ptr, align 8
  %14 = alloca ptr, align 8
  store ptr %0, ptr %8, align 8
  store ptr %1, ptr %9, align 8
  store i64 %2, ptr %10, align 8
  store i32 %3, ptr %11, align 4
  store i32 %4, ptr %12, align 4
  store ptr %5, ptr %13, align 8
  store ptr %6, ptr %14, align 8
  %15 = load ptr, ptr %8, align 8
  %16 = load ptr, ptr %9, align 8
  %17 = load i64, ptr %10, align 8
  %18 = load i32, ptr %11, align 4
  %19 = load i32, ptr %12, align 4
  %20 = load ptr, ptr %13, align 8
  %21 = load ptr, ptr %14, align 8
  call void @_ZN2cv12batchDistL1_IhfEEvPKT_S3_miiPT0_PKh(ptr noundef %15, ptr noundef %16, i64 noundef %17, i32 noundef %18, i32 noundef %19, ptr noundef %20, ptr noundef %21)
  ret void
}